target datalayout = "e-m:e-p270:32:32-p271:32:32-p272:64:64-i64:64-i128:128-f80:128-n8:16:32:64-S128"
target triple = "x86_64-pc-linux-gnu"

%struct.If_Set_t_ = type { i16, i16, ptr, ptr }
%struct.If_Cut_t_ = type <{ float, float, float, float, i32, i32, i32, i64, [0 x i32] }>
%struct.If_Man_t_ = type { ptr, ptr, ptr, ptr, ptr, ptr, ptr, ptr, [5 x i32], i32, float, float, float, float, i32, float, i32, i32, [4 x ptr], ptr, i32, i32, i32, ptr, [3 x [32 x i32]], i32, i32, i32, ptr, ptr, ptr, ptr, ptr, ptr, ptr, i32, i32, i32, [16 x i32], i32, i32, i32, i32, ptr, ptr, ptr, ptr, ptr, i32, i32, [32 x i32], [32 x i32], i32, i32, i32, i32, ptr, [16 x ptr], [16 x ptr], [16 x ptr], [16 x ptr], [16 x ptr], [16 x ptr], [16 x ptr], ptr, ptr, ptr, ptr, [32 x i8], i32, i32, i32, [6 x i64], [2 x i32], [2 x i32], ptr, [15 x i32], ptr, ptr, ptr, [16 x i32], ptr, ptr, ptr, ptr, [2 x i32], [2 x i32], [2 x ptr], ptr }
%struct.If_Par_t_ = type { i32, i32, i32, i32, i32, i32, float, float, i32, i32, i32, i32, i32, i32, i32, i32, i32, i32, i32, i32, i32, i32, i32, i32, i32, i32, i32, i32, i32, i32, i32, i32, i32, i32, i32, i32, i32, i32, i32, i32, i32, i32, i32, i32, i32, i32, i32, i32, i32, i32, ptr, i32, float, i32, i32, i32, i32, i32, i32, i32, i32, i32, i32, i32, i32, i32, i32, float, float, float, ptr, ptr, ptr, ptr, ptr, ptr, ptr, ptr, ptr }

; Function Attrs: nounwind uwtable
define void @If_CutSort(ptr noundef %0, ptr noundef %1, ptr noundef %2) #0 {
  %4 = alloca ptr, align 8
  %5 = alloca ptr, align 8
  %6 = alloca ptr, align 8
  %7 = alloca i32, align 4
  %8 = alloca i32, align 4
  %9 = alloca ptr, align 8
  store ptr %0, ptr %4, align 8, !tbaa !35
  store ptr %1, ptr %5, align 8, !tbaa !3
  store ptr %2, ptr %6, align 8, !tbaa !15
  call void @llvm.lifetime.start.p0(i64 4, ptr %7) #9
  %10 = load ptr, ptr %5, align 8, !tbaa !3
  %11 = getelementptr inbounds nuw %struct.If_Set_t_, ptr %10, i32 0, i32 1
  %12 = load i16, ptr %11, align 2, !tbaa !10
  %13 = sext i16 %12 to i32
  %14 = icmp eq i32 %13, 0
  br i1 %14, label %15, label %20

15:                                               ; preds = %3
  %16 = load ptr, ptr %5, align 8, !tbaa !3
  %17 = getelementptr inbounds nuw %struct.If_Set_t_, ptr %16, i32 0, i32 1
  %18 = load i16, ptr %17, align 2, !tbaa !10
  %19 = add i16 %18, 1
  store i16 %19, ptr %17, align 2, !tbaa !10
  store i32 1, ptr %8, align 4
  br label %274

20:                                               ; preds = %3
  %21 = load ptr, ptr %6, align 8, !tbaa !15
  %22 = getelementptr inbounds nuw %struct.If_Cut_t_, ptr %21, i32 0, i32 7
  %23 = load i64, ptr %22, align 4
  %24 = lshr i64 %23, 14
  %25 = and i64 %24, 1
  %26 = trunc i64 %25 to i32
  %27 = icmp ne i32 %26, 0
  br i1 %27, label %188, label %28

28:                                               ; preds = %20
  %29 = load ptr, ptr %4, align 8, !tbaa !35
  %30 = getelementptr inbounds nuw %struct.If_Man_t_, ptr %29, i32 0, i32 1
  %31 = load ptr, ptr %30, align 8, !tbaa !65
  %32 = getelementptr inbounds nuw %struct.If_Par_t_, ptr %31, i32 0, i32 36
  %33 = load i32, ptr %32, align 8, !tbaa !66
  %34 = icmp ne i32 %33, 0
  br i1 %34, label %147, label %35

35:                                               ; preds = %28
  %36 = load ptr, ptr %4, align 8, !tbaa !35
  %37 = getelementptr inbounds nuw %struct.If_Man_t_, ptr %36, i32 0, i32 1
  %38 = load ptr, ptr %37, align 8, !tbaa !65
  %39 = getelementptr inbounds nuw %struct.If_Par_t_, ptr %38, i32 0, i32 76
  %40 = load ptr, ptr %39, align 8, !tbaa !70
  %41 = icmp ne ptr %40, null
  br i1 %41, label %147, label %42

42:                                               ; preds = %35
  %43 = load ptr, ptr %4, align 8, !tbaa !35
  %44 = getelementptr inbounds nuw %struct.If_Man_t_, ptr %43, i32 0, i32 1
  %45 = load ptr, ptr %44, align 8, !tbaa !65
  %46 = getelementptr inbounds nuw %struct.If_Par_t_, ptr %45, i32 0, i32 29
  %47 = load i32, ptr %46, align 4, !tbaa !71
  %48 = icmp ne i32 %47, 0
  br i1 %48, label %147, label %49

49:                                               ; preds = %42
  %50 = load ptr, ptr %4, align 8, !tbaa !35
  %51 = getelementptr inbounds nuw %struct.If_Man_t_, ptr %50, i32 0, i32 1
  %52 = load ptr, ptr %51, align 8, !tbaa !65
  %53 = getelementptr inbounds nuw %struct.If_Par_t_, ptr %52, i32 0, i32 50
  %54 = load ptr, ptr %53, align 8, !tbaa !72
  %55 = icmp ne ptr %54, null
  br i1 %55, label %147, label %56

56:                                               ; preds = %49
  %57 = load ptr, ptr %4, align 8, !tbaa !35
  %58 = getelementptr inbounds nuw %struct.If_Man_t_, ptr %57, i32 0, i32 1
  %59 = load ptr, ptr %58, align 8, !tbaa !65
  %60 = getelementptr inbounds nuw %struct.If_Par_t_, ptr %59, i32 0, i32 25
  %61 = load i32, ptr %60, align 4, !tbaa !73
  %62 = icmp ne i32 %61, 0
  br i1 %62, label %147, label %63

63:                                               ; preds = %56
  %64 = load ptr, ptr %4, align 8, !tbaa !35
  %65 = getelementptr inbounds nuw %struct.If_Man_t_, ptr %64, i32 0, i32 1
  %66 = load ptr, ptr %65, align 8, !tbaa !65
  %67 = getelementptr inbounds nuw %struct.If_Par_t_, ptr %66, i32 0, i32 26
  %68 = load i32, ptr %67, align 8, !tbaa !74
  %69 = icmp ne i32 %68, 0
  br i1 %69, label %147, label %70

70:                                               ; preds = %63
  %71 = load ptr, ptr %4, align 8, !tbaa !35
  %72 = getelementptr inbounds nuw %struct.If_Man_t_, ptr %71, i32 0, i32 1
  %73 = load ptr, ptr %72, align 8, !tbaa !65
  %74 = getelementptr inbounds nuw %struct.If_Par_t_, ptr %73, i32 0, i32 46
  %75 = load i32, ptr %74, align 8, !tbaa !75
  %76 = icmp ne i32 %75, 0
  br i1 %76, label %147, label %77

77:                                               ; preds = %70
  %78 = load ptr, ptr %4, align 8, !tbaa !35
  %79 = getelementptr inbounds nuw %struct.If_Man_t_, ptr %78, i32 0, i32 1
  %80 = load ptr, ptr %79, align 8, !tbaa !65
  %81 = getelementptr inbounds nuw %struct.If_Par_t_, ptr %80, i32 0, i32 47
  %82 = load i32, ptr %81, align 4, !tbaa !76
  %83 = icmp ne i32 %82, 0
  br i1 %83, label %147, label %84

84:                                               ; preds = %77
  %85 = load ptr, ptr %4, align 8, !tbaa !35
  %86 = getelementptr inbounds nuw %struct.If_Man_t_, ptr %85, i32 0, i32 1
  %87 = load ptr, ptr %86, align 8, !tbaa !65
  %88 = getelementptr inbounds nuw %struct.If_Par_t_, ptr %87, i32 0, i32 31
  %89 = load i32, ptr %88, align 4, !tbaa !77
  %90 = icmp ne i32 %89, 0
  br i1 %90, label %147, label %91

91:                                               ; preds = %84
  %92 = load ptr, ptr %4, align 8, !tbaa !35
  %93 = getelementptr inbounds nuw %struct.If_Man_t_, ptr %92, i32 0, i32 1
  %94 = load ptr, ptr %93, align 8, !tbaa !65
  %95 = getelementptr inbounds nuw %struct.If_Par_t_, ptr %94, i32 0, i32 38
  %96 = load i32, ptr %95, align 8, !tbaa !78
  %97 = icmp ne i32 %96, 0
  br i1 %97, label %147, label %98

98:                                               ; preds = %91
  %99 = load ptr, ptr %4, align 8, !tbaa !35
  %100 = getelementptr inbounds nuw %struct.If_Man_t_, ptr %99, i32 0, i32 1
  %101 = load ptr, ptr %100, align 8, !tbaa !65
  %102 = getelementptr inbounds nuw %struct.If_Par_t_, ptr %101, i32 0, i32 39
  %103 = load i32, ptr %102, align 4, !tbaa !79
  %104 = icmp ne i32 %103, 0
  br i1 %104, label %147, label %105

105:                                              ; preds = %98
  %106 = load ptr, ptr %4, align 8, !tbaa !35
  %107 = getelementptr inbounds nuw %struct.If_Man_t_, ptr %106, i32 0, i32 1
  %108 = load ptr, ptr %107, align 8, !tbaa !65
  %109 = getelementptr inbounds nuw %struct.If_Par_t_, ptr %108, i32 0, i32 28
  %110 = load i32, ptr %109, align 8, !tbaa !80
  %111 = icmp ne i32 %110, 0
  br i1 %111, label %147, label %112

112:                                              ; preds = %105
  %113 = load ptr, ptr %4, align 8, !tbaa !35
  %114 = getelementptr inbounds nuw %struct.If_Man_t_, ptr %113, i32 0, i32 1
  %115 = load ptr, ptr %114, align 8, !tbaa !65
  %116 = getelementptr inbounds nuw %struct.If_Par_t_, ptr %115, i32 0, i32 37
  %117 = load i32, ptr %116, align 4, !tbaa !81
  %118 = icmp ne i32 %117, 0
  br i1 %118, label %147, label %119

119:                                              ; preds = %112
  %120 = load ptr, ptr %4, align 8, !tbaa !35
  %121 = getelementptr inbounds nuw %struct.If_Man_t_, ptr %120, i32 0, i32 1
  %122 = load ptr, ptr %121, align 8, !tbaa !65
  %123 = getelementptr inbounds nuw %struct.If_Par_t_, ptr %122, i32 0, i32 34
  %124 = load i32, ptr %123, align 8, !tbaa !82
  %125 = icmp ne i32 %124, 0
  br i1 %125, label %147, label %126

126:                                              ; preds = %119
  %127 = load ptr, ptr %4, align 8, !tbaa !35
  %128 = getelementptr inbounds nuw %struct.If_Man_t_, ptr %127, i32 0, i32 1
  %129 = load ptr, ptr %128, align 8, !tbaa !65
  %130 = getelementptr inbounds nuw %struct.If_Par_t_, ptr %129, i32 0, i32 35
  %131 = load i32, ptr %130, align 4, !tbaa !83
  %132 = icmp ne i32 %131, 0
  br i1 %132, label %147, label %133

133:                                              ; preds = %126
  %134 = load ptr, ptr %4, align 8, !tbaa !35
  %135 = getelementptr inbounds nuw %struct.If_Man_t_, ptr %134, i32 0, i32 1
  %136 = load ptr, ptr %135, align 8, !tbaa !65
  %137 = getelementptr inbounds nuw %struct.If_Par_t_, ptr %136, i32 0, i32 41
  %138 = load i32, ptr %137, align 4, !tbaa !84
  %139 = icmp ne i32 %138, 0
  br i1 %139, label %147, label %140

140:                                              ; preds = %133
  %141 = load ptr, ptr %4, align 8, !tbaa !35
  %142 = getelementptr inbounds nuw %struct.If_Man_t_, ptr %141, i32 0, i32 1
  %143 = load ptr, ptr %142, align 8, !tbaa !65
  %144 = getelementptr inbounds nuw %struct.If_Par_t_, ptr %143, i32 0, i32 42
  %145 = load i32, ptr %144, align 8, !tbaa !85
  %146 = icmp ne i32 %145, 0
  br i1 %146, label %147, label %188

147:                                              ; preds = %140, %133, %126, %119, %112, %105, %98, %91, %84, %77, %70, %63, %56, %49, %42, %35, %28
  call void @llvm.lifetime.start.p0(i64 8, ptr %9) #9
  %148 = load ptr, ptr %5, align 8, !tbaa !3
  %149 = getelementptr inbounds nuw %struct.If_Set_t_, ptr %148, i32 0, i32 3
  %150 = load ptr, ptr %149, align 8, !tbaa !14
  %151 = getelementptr inbounds ptr, ptr %150, i64 0
  %152 = load ptr, ptr %151, align 8, !tbaa !15
  store ptr %152, ptr %9, align 8, !tbaa !15
  %153 = load ptr, ptr %9, align 8, !tbaa !15
  %154 = getelementptr inbounds nuw %struct.If_Cut_t_, ptr %153, i32 0, i32 7
  %155 = load i64, ptr %154, align 4
  %156 = lshr i64 %155, 14
  %157 = and i64 %156, 1
  %158 = trunc i64 %157 to i32
  %159 = icmp ne i32 %158, 0
  br i1 %159, label %166, label %160

160:                                              ; preds = %147
  %161 = load ptr, ptr %4, align 8, !tbaa !35
  %162 = load ptr, ptr %9, align 8, !tbaa !15
  %163 = load ptr, ptr %6, align 8, !tbaa !15
  %164 = call i32 @If_ManSortCompare(ptr noundef %161, ptr noundef %162, ptr noundef %163)
  %165 = icmp eq i32 %164, 1
  br i1 %165, label %166, label %184

166:                                              ; preds = %160, %147
  %167 = load ptr, ptr %6, align 8, !tbaa !15
  %168 = load ptr, ptr %5, align 8, !tbaa !3
  %169 = getelementptr inbounds nuw %struct.If_Set_t_, ptr %168, i32 0, i32 3
  %170 = load ptr, ptr %169, align 8, !tbaa !14
  %171 = getelementptr inbounds ptr, ptr %170, i64 0
  store ptr %167, ptr %171, align 8, !tbaa !15
  %172 = load ptr, ptr %9, align 8, !tbaa !15
  %173 = load ptr, ptr %5, align 8, !tbaa !3
  %174 = getelementptr inbounds nuw %struct.If_Set_t_, ptr %173, i32 0, i32 3
  %175 = load ptr, ptr %174, align 8, !tbaa !14
  %176 = load ptr, ptr %5, align 8, !tbaa !3
  %177 = getelementptr inbounds nuw %struct.If_Set_t_, ptr %176, i32 0, i32 1
  %178 = load i16, ptr %177, align 2, !tbaa !10
  %179 = sext i16 %178 to i64
  %180 = getelementptr inbounds ptr, ptr %175, i64 %179
  store ptr %172, ptr %180, align 8, !tbaa !15
  %181 = load ptr, ptr %4, align 8, !tbaa !35
  %182 = load ptr, ptr %5, align 8, !tbaa !3
  %183 = load ptr, ptr %9, align 8, !tbaa !15
  call void @If_CutSort(ptr noundef %181, ptr noundef %182, ptr noundef %183)
  store i32 1, ptr %8, align 4
  br label %185

184:                                              ; preds = %160
  store i32 0, ptr %8, align 4
  br label %185

185:                                              ; preds = %184, %166
  call void @llvm.lifetime.end.p0(i64 8, ptr %9) #9
  %186 = load i32, ptr %8, align 4
  switch i32 %186, label %274 [
    i32 0, label %187
  ]

187:                                              ; preds = %185
  br label %188

188:                                              ; preds = %187, %140, %20
  %189 = load ptr, ptr %5, align 8, !tbaa !3
  %190 = getelementptr inbounds nuw %struct.If_Set_t_, ptr %189, i32 0, i32 1
  %191 = load i16, ptr %190, align 2, !tbaa !10
  %192 = sext i16 %191 to i32
  %193 = sub nsw i32 %192, 1
  store i32 %193, ptr %7, align 4, !tbaa !8
  br label %194

194:                                              ; preds = %255, %188
  %195 = load i32, ptr %7, align 4, !tbaa !8
  %196 = icmp sge i32 %195, 0
  br i1 %196, label %197, label %258

197:                                              ; preds = %194
  %198 = load ptr, ptr %4, align 8, !tbaa !35
  %199 = load ptr, ptr %5, align 8, !tbaa !3
  %200 = getelementptr inbounds nuw %struct.If_Set_t_, ptr %199, i32 0, i32 3
  %201 = load ptr, ptr %200, align 8, !tbaa !14
  %202 = load i32, ptr %7, align 4, !tbaa !8
  %203 = sext i32 %202 to i64
  %204 = getelementptr inbounds ptr, ptr %201, i64 %203
  %205 = load ptr, ptr %204, align 8, !tbaa !15
  %206 = load ptr, ptr %6, align 8, !tbaa !15
  %207 = call i32 @If_ManSortCompare(ptr noundef %198, ptr noundef %205, ptr noundef %206)
  %208 = icmp sle i32 %207, 0
  br i1 %208, label %232, label %209

209:                                              ; preds = %197
  %210 = load i32, ptr %7, align 4, !tbaa !8
  %211 = icmp eq i32 %210, 0
  br i1 %211, label %212, label %233

212:                                              ; preds = %209
  %213 = load ptr, ptr %5, align 8, !tbaa !3
  %214 = getelementptr inbounds nuw %struct.If_Set_t_, ptr %213, i32 0, i32 3
  %215 = load ptr, ptr %214, align 8, !tbaa !14
  %216 = getelementptr inbounds ptr, ptr %215, i64 0
  %217 = load ptr, ptr %216, align 8, !tbaa !15
  %218 = getelementptr inbounds nuw %struct.If_Cut_t_, ptr %217, i32 0, i32 7
  %219 = load i64, ptr %218, align 4
  %220 = lshr i64 %219, 14
  %221 = and i64 %220, 1
  %222 = trunc i64 %221 to i32
  %223 = icmp ne i32 %222, 0
  br i1 %223, label %233, label %224

224:                                              ; preds = %212
  %225 = load ptr, ptr %6, align 8, !tbaa !15
  %226 = getelementptr inbounds nuw %struct.If_Cut_t_, ptr %225, i32 0, i32 7
  %227 = load i64, ptr %226, align 4
  %228 = lshr i64 %227, 14
  %229 = and i64 %228, 1
  %230 = trunc i64 %229 to i32
  %231 = icmp ne i32 %230, 0
  br i1 %231, label %232, label %233

232:                                              ; preds = %224, %197
  br label %258

233:                                              ; preds = %224, %212, %209
  %234 = load ptr, ptr %5, align 8, !tbaa !3
  %235 = getelementptr inbounds nuw %struct.If_Set_t_, ptr %234, i32 0, i32 3
  %236 = load ptr, ptr %235, align 8, !tbaa !14
  %237 = load i32, ptr %7, align 4, !tbaa !8
  %238 = sext i32 %237 to i64
  %239 = getelementptr inbounds ptr, ptr %236, i64 %238
  %240 = load ptr, ptr %239, align 8, !tbaa !15
  %241 = load ptr, ptr %5, align 8, !tbaa !3
  %242 = getelementptr inbounds nuw %struct.If_Set_t_, ptr %241, i32 0, i32 3
  %243 = load ptr, ptr %242, align 8, !tbaa !14
  %244 = load i32, ptr %7, align 4, !tbaa !8
  %245 = add nsw i32 %244, 1
  %246 = sext i32 %245 to i64
  %247 = getelementptr inbounds ptr, ptr %243, i64 %246
  store ptr %240, ptr %247, align 8, !tbaa !15
  %248 = load ptr, ptr %6, align 8, !tbaa !15
  %249 = load ptr, ptr %5, align 8, !tbaa !3
  %250 = getelementptr inbounds nuw %struct.If_Set_t_, ptr %249, i32 0, i32 3
  %251 = load ptr, ptr %250, align 8, !tbaa !14
  %252 = load i32, ptr %7, align 4, !tbaa !8
  %253 = sext i32 %252 to i64
  %254 = getelementptr inbounds ptr, ptr %251, i64 %253
  store ptr %248, ptr %254, align 8, !tbaa !15
  br label %255

255:                                              ; preds = %233
  %256 = load i32, ptr %7, align 4, !tbaa !8
  %257 = add nsw i32 %256, -1
  store i32 %257, ptr %7, align 4, !tbaa !8
  br label %194, !llvm.loop !86

258:                                              ; preds = %232, %194
  %259 = load ptr, ptr %5, align 8, !tbaa !3
  %260 = getelementptr inbounds nuw %struct.If_Set_t_, ptr %259, i32 0, i32 1
  %261 = load i16, ptr %260, align 2, !tbaa !10
  %262 = sext i16 %261 to i32
  %263 = load ptr, ptr %5, align 8, !tbaa !3
  %264 = getelementptr inbounds nuw %struct.If_Set_t_, ptr %263, i32 0, i32 0
  %265 = load i16, ptr %264, align 8, !tbaa !87
  %266 = sext i16 %265 to i32
  %267 = icmp slt i32 %262, %266
  br i1 %267, label %268, label %273

268:                                              ; preds = %258
  %269 = load ptr, ptr %5, align 8, !tbaa !3
  %270 = getelementptr inbounds nuw %struct.If_Set_t_, ptr %269, i32 0, i32 1
  %271 = load i16, ptr %270, align 2, !tbaa !10
  %272 = add i16 %271, 1
  store i16 %272, ptr %270, align 2, !tbaa !10
  br label %273

273:                                              ; preds = %268, %258
  store i32 0, ptr %8, align 4
  br label %274

274:                                              ; preds = %273, %185, %15
  call void @llvm.lifetime.end.p0(i64 4, ptr %7) #9
  %275 = load i32, ptr %8, align 4
  switch i32 %275, label %277 [
    i32 0, label %276
    i32 1, label %276
  ]

276:                                              ; preds = %274, %274
  ret void

277:                                              ; preds = %274
  unreachable
}