; Function Attrs: nofree norecurse nosync nounwind memory(readwrite, inaccessiblemem: none) uwtable
define void @If_CutSort(ptr noundef readonly captures(none) %0, ptr noundef captures(none) %1, ptr noundef %2) local_unnamed_addr #2 {
  %4 = getelementptr inbounds nuw i8, ptr %1, i64 2
  %5 = load i16, ptr %4, align 2, !tbaa !3
  %6 = icmp eq i16 %5, 0
  br i1 %6, label %.sink.split, label %.lr.ph

.lr.ph:                                           ; preds = %3
  %7 = getelementptr inbounds nuw i8, ptr %0, i64 8
  %8 = getelementptr inbounds nuw i8, ptr %1, i64 16
  %9 = sext i16 %5 to i64
  %10 = getelementptr inbounds nuw i8, ptr %2, i64 28
  %11 = load i64, ptr %10, align 4
  %12 = and i64 %11, 16384
  %.not99 = icmp eq i64 %12, 0
  br i1 %.not99, label %.lr.ph101.preheader, label %._crit_edge102

.lr.ph101.preheader:                              ; preds = %.lr.ph
  %13 = load ptr, ptr %7, align 8, !tbaa !57
  %14 = getelementptr inbounds nuw i8, ptr %13, i64 144
  %15 = load i32, ptr %14, align 8, !tbaa !58
  %.not54 = icmp eq i32 %15, 0
  %16 = getelementptr inbounds nuw i8, ptr %13, i64 336
  %17 = getelementptr inbounds nuw i8, ptr %13, i64 116
  %18 = getelementptr inbounds nuw i8, ptr %13, i64 200
  %19 = getelementptr inbounds nuw i8, ptr %13, i64 100
  %20 = getelementptr inbounds nuw i8, ptr %13, i64 104
  %21 = getelementptr inbounds nuw i8, ptr %13, i64 184
  %22 = getelementptr inbounds nuw i8, ptr %13, i64 188
  %23 = getelementptr inbounds nuw i8, ptr %13, i64 124
  %24 = getelementptr inbounds nuw i8, ptr %13, i64 152
  %25 = getelementptr inbounds nuw i8, ptr %13, i64 156
  %26 = getelementptr inbounds nuw i8, ptr %13, i64 112
  %27 = getelementptr inbounds nuw i8, ptr %13, i64 148
  %28 = getelementptr inbounds nuw i8, ptr %13, i64 136
  %29 = getelementptr inbounds nuw i8, ptr %13, i64 140
  %30 = getelementptr inbounds nuw i8, ptr %13, i64 164
  %31 = getelementptr inbounds nuw i8, ptr %13, i64 168
  br label %.lr.ph101

.lr.ph101:                                        ; preds = %.lr.ph101.preheader, %.critedge
  %.tr7581100 = phi ptr [ %66, %.critedge ], [ %2, %.lr.ph101.preheader ]
  br i1 %.not54, label %32, label %64

32:                                               ; preds = %.lr.ph101
  %33 = load ptr, ptr %16, align 8, !tbaa !62
  %.not55 = icmp eq ptr %33, null
  br i1 %.not55, label %34, label %64

34:                                               ; preds = %32
  %35 = load i32, ptr %17, align 4, !tbaa !63
  %.not56 = icmp eq i32 %35, 0
  br i1 %.not56, label %36, label %64

36:                                               ; preds = %34
  %37 = load ptr, ptr %18, align 8, !tbaa !64
  %.not57 = icmp eq ptr %37, null
  br i1 %.not57, label %38, label %64

38:                                               ; preds = %36
  %39 = load i32, ptr %19, align 4, !tbaa !65
  %.not58 = icmp eq i32 %39, 0
  br i1 %.not58, label %40, label %64

40:                                               ; preds = %38
  %41 = load i32, ptr %20, align 8, !tbaa !66
  %.not59 = icmp eq i32 %41, 0
  br i1 %.not59, label %42, label %64

42:                                               ; preds = %40
  %43 = load i32, ptr %21, align 8, !tbaa !67
  %.not60 = icmp eq i32 %43, 0
  br i1 %.not60, label %44, label %64

44:                                               ; preds = %42
  %45 = load i32, ptr %22, align 4, !tbaa !68
  %.not61 = icmp eq i32 %45, 0
  br i1 %.not61, label %46, label %64

46:                                               ; preds = %44
  %47 = load i32, ptr %23, align 4, !tbaa !69
  %.not62 = icmp eq i32 %47, 0
  br i1 %.not62, label %48, label %64

48:                                               ; preds = %46
  %49 = load i32, ptr %24, align 8, !tbaa !70
  %.not63 = icmp eq i32 %49, 0
  br i1 %.not63, label %50, label %64

50:                                               ; preds = %48
  %51 = load i32, ptr %25, align 4, !tbaa !71
  %.not64 = icmp eq i32 %51, 0
  br i1 %.not64, label %52, label %64

52:                                               ; preds = %50
  %53 = load i32, ptr %26, align 8, !tbaa !72
  %.not65 = icmp eq i32 %53, 0
  br i1 %.not65, label %54, label %64

54:                                               ; preds = %52
  %55 = load i32, ptr %27, align 4, !tbaa !73
  %.not66 = icmp eq i32 %55, 0
  br i1 %.not66, label %56, label %64

56:                                               ; preds = %54
  %57 = load i32, ptr %28, align 8, !tbaa !74
  %.not67 = icmp eq i32 %57, 0
  br i1 %.not67, label %58, label %64

58:                                               ; preds = %56
  %59 = load i32, ptr %29, align 4, !tbaa !75
  %.not68 = icmp eq i32 %59, 0
  br i1 %.not68, label %60, label %64

60:                                               ; preds = %58
  %61 = load i32, ptr %30, align 4, !tbaa !76
  %.not69 = icmp eq i32 %61, 0
  br i1 %.not69, label %62, label %64

62:                                               ; preds = %60
  %63 = load i32, ptr %31, align 8, !tbaa !77
  %.not70 = icmp eq i32 %63, 0
  br i1 %.not70, label %._crit_edge102, label %64

64:                                               ; preds = %62, %60, %58, %56, %54, %52, %50, %48, %46, %44, %42, %40, %38, %36, %34, %32, %.lr.ph101
  %65 = load ptr, ptr %8, align 8, !tbaa !11
  %66 = load ptr, ptr %65, align 8, !tbaa !12
  %67 = getelementptr inbounds nuw i8, ptr %66, i64 28
  %68 = load i64, ptr %67, align 4
  %69 = and i64 %68, 16384
  %.not71 = icmp eq i64 %69, 0
  br i1 %.not71, label %70, label %.critedge

70:                                               ; preds = %64
  %71 = tail call fastcc i32 @If_ManSortCompare(ptr noundef nonnull %0, ptr noundef nonnull %66, ptr noundef nonnull %.tr7581100)
  %72 = icmp eq i32 %71, 1
  br i1 %72, label %.critedge, label %._crit_edge102

.critedge:                                        ; preds = %70, %64
  store ptr %.tr7581100, ptr %65, align 8, !tbaa !12
  %73 = getelementptr inbounds ptr, ptr %65, i64 %9
  store ptr %66, ptr %73, align 8, !tbaa !12
  %74 = getelementptr inbounds nuw i8, ptr %66, i64 28
  %75 = load i64, ptr %74, align 4
  %76 = and i64 %75, 16384
  %.not = icmp eq i64 %76, 0
  br i1 %.not, label %.lr.ph101, label %._crit_edge102

._crit_edge102:                                   ; preds = %.critedge, %62, %70, %.lr.ph
  %.tr7581.lcssa = phi ptr [ %2, %.lr.ph ], [ %66, %.critedge ], [ %.tr7581100, %62 ], [ %.tr7581100, %70 ]
  %77 = getelementptr inbounds nuw i8, ptr %.tr7581.lcssa, i64 28
  %78 = icmp sgt i16 %5, 0
  br i1 %78, label %.lr.ph85, label %._crit_edge

.lr.ph85:                                         ; preds = %._crit_edge102
  %79 = load ptr, ptr %8, align 8, !tbaa !11
  %80 = zext nneg i16 %5 to i64
  %indvars.iv.next107 = add nsw i64 %80, -1
  %81 = getelementptr inbounds nuw ptr, ptr %79, i64 %indvars.iv.next107
  %82 = load ptr, ptr %81, align 8, !tbaa !12
  %83 = tail call fastcc i32 @If_ManSortCompare(ptr noundef %0, ptr noundef %82, ptr noundef %.tr7581.lcssa)
  %84 = icmp slt i32 %83, 1
  br i1 %84, label %._crit_edge, label %.lr.ph110

.lr.ph110:                                        ; preds = %.lr.ph85, %97
  %85 = phi ptr [ %100, %97 ], [ %82, %.lr.ph85 ]
  %86 = phi ptr [ %99, %97 ], [ %81, %.lr.ph85 ]
  %indvars.iv.next109 = phi i64 [ %indvars.iv.next, %97 ], [ %indvars.iv.next107, %.lr.ph85 ]
  %indvars.iv108 = phi i64 [ %indvars.iv.next109, %97 ], [ %80, %.lr.ph85 ]
  %87 = icmp eq i64 %indvars.iv.next109, 0
  br i1 %87, label %88, label %97

88:                                               ; preds = %.lr.ph110
  %89 = load ptr, ptr %79, align 8, !tbaa !12
  %90 = getelementptr inbounds nuw i8, ptr %89, i64 28
  %91 = load i64, ptr %90, align 4
  %92 = and i64 %91, 16384
  %.not72 = icmp eq i64 %92, 0
  br i1 %.not72, label %93, label %.thread

93:                                               ; preds = %88
  %94 = load i64, ptr %77, align 4
  %95 = and i64 %94, 16384
  %.not73 = icmp eq i64 %95, 0
  br i1 %.not73, label %.thread, label %._crit_edge

.thread:                                          ; preds = %93, %88
  %96 = getelementptr inbounds nuw ptr, ptr %79, i64 %indvars.iv108
  store ptr %85, ptr %96, align 8, !tbaa !12
  store ptr %.tr7581.lcssa, ptr %86, align 8, !tbaa !12
  br label %._crit_edge

97:                                               ; preds = %.lr.ph110
  %98 = getelementptr inbounds nuw ptr, ptr %79, i64 %indvars.iv108
  store ptr %85, ptr %98, align 8, !tbaa !12
  store ptr %.tr7581.lcssa, ptr %86, align 8, !tbaa !12
  %indvars.iv.next = add nsw i64 %indvars.iv.next109, -1
  %99 = getelementptr inbounds nuw ptr, ptr %79, i64 %indvars.iv.next
  %100 = load ptr, ptr %99, align 8, !tbaa !12
  %101 = tail call fastcc i32 @If_ManSortCompare(ptr noundef %0, ptr noundef %100, ptr noundef %.tr7581.lcssa)
  %102 = icmp slt i32 %101, 1
  br i1 %102, label %._crit_edge, label %.lr.ph110, !llvm.loop !78

._crit_edge:                                      ; preds = %97, %.lr.ph85, %93, %.thread, %._crit_edge102
  %103 = load i16, ptr %1, align 8, !tbaa !79
  %104 = icmp slt i16 %5, %103
  br i1 %104, label %105, label %107

105:                                              ; preds = %._crit_edge
  %106 = add nsw i16 %5, 1
  br label %.sink.split

.sink.split:                                      ; preds = %3, %105
  %.sink = phi i16 [ %106, %105 ], [ 1, %3 ]
  store i16 %.sink, ptr %4, align 2, !tbaa !3
  br label %107

107:                                              ; preds = %.sink.split, %._crit_edge
  ret void
}